; Function Attrs: mustprogress uwtable
define hidden noundef zeroext i1 @_ZNK3smt14theory_wmaxsat10is_optimalEv(ptr noundef nonnull align 8 dereferenceable(952) %0) local_unnamed_addr #4 align 2 {
  %2 = getelementptr inbounds nuw i8, ptr %0, i64 848
  %3 = load i8, ptr %2, align 8, !tbaa !29, !range !107, !noundef !108
  %4 = trunc nuw i8 %3 to i1
  br i1 %4, label %5, label %_ZltRK15_scoped_numeralI11mpz_managerILb0EEERK3mpz.exit

5:                                                ; preds = %1
  %6 = getelementptr inbounds nuw i8, ptr %0, i64 800
  %7 = getelementptr inbounds nuw i8, ptr %0, i64 832
  %8 = load ptr, ptr %6, align 8, !tbaa !88
  %9 = getelementptr inbounds nuw i8, ptr %0, i64 808
  %10 = getelementptr inbounds nuw i8, ptr %0, i64 812
  %11 = load i8, ptr %10, align 4
  %12 = and i8 %11, 1
  %13 = icmp eq i8 %12, 0
  br i1 %13, label %14, label %23

14:                                               ; preds = %5
  %15 = getelementptr inbounds nuw i8, ptr %0, i64 836
  %16 = load i8, ptr %15, align 4
  %17 = and i8 %16, 1
  %18 = icmp eq i8 %17, 0
  br i1 %18, label %19, label %23

19:                                               ; preds = %14
  %20 = load i32, ptr %9, align 8, !tbaa !28
  %21 = load i32, ptr %7, align 8, !tbaa !28
  %22 = icmp slt i32 %20, %21
  br label %_ZltRK15_scoped_numeralI11mpz_managerILb0EEERK3mpz.exit

23:                                               ; preds = %14, %5
  %24 = tail call noundef i32 @_ZN11mpz_managerILb0EE11big_compareERK3mpzS3_(ptr noundef nonnull align 8 dereferenceable(600) %8, ptr noundef nonnull align 8 dereferenceable(16) %9, ptr noundef nonnull align 8 dereferenceable(16) %7)
  %25 = icmp slt i32 %24, 0
  br label %_ZltRK15_scoped_numeralI11mpz_managerILb0EEERK3mpz.exit

_ZltRK15_scoped_numeralI11mpz_managerILb0EEERK3mpz.exit: ; preds = %23, %19, %1
  %26 = phi i1 [ true, %1 ], [ %22, %19 ], [ %25, %23 ]
  ret i1 %26
}